Certificate:
    Data:
        Version: 3 (0x2)
        Serial Number: 2 (0x2)
    Signature Algorithm: sha1WithRSAEncryption
        Issuer: DC=tech, DC=kxuan, O=kXuan, OU=kXuan Signing CA, CN=kXuan Signing CA
        Validity
            Not Before: Jun 23 10:24:45 2017 GMT
            Not After : Jun 23 10:24:45 2019 GMT
        Subject: O=kXuan, OU=kXuan, CN=kxuan.tech
        Subject Public Key Info:
            Public Key Algorithm: rsaEncryption
                Public-Key: (2048 bit)
                Modulus:
                    00:ba:1b:4d:dd:87:67:3c:37:7d:72:4a:6e:50:5f:
                    0b:4f:d5:70:d7:e1:b5:b2:21:51:69:b1:2f:d3:9b:
                    04:97:f0:ee:b4:9a:8e:00:b1:09:2d:48:10:bc:c9:
                    28:23:ee:7a:b7:e2:b1:c8:81:f0:ca:90:a2:bb:ab:
                    6d:48:53:09:2f:16:7e:20:e5:1c:7b:d8:7c:8e:1c:
                    67:67:f4:1e:4b:8e:09:d1:43:e6:f4:04:ef:d0:b1:
                    1f:a0:51:20:0d:7a:1f:ed:d9:2a:a7:b2:72:87:18:
                    aa:24:c8:49:f2:04:1a:50:7c:f9:7d:d9:86:e4:1d:
                    cd:c7:b8:a1:7c:97:21:c4:50:b1:29:16:42:07:cc:
                    df:fc:7d:ff:76:d8:59:2a:13:b0:c7:5e:8a:11:6c:
                    11:71:8d:0e:74:56:a1:62:f2:cd:6e:f4:86:01:59:
                    28:64:9a:7f:cf:6f:12:9a:5b:18:b5:ef:15:d9:c4:
                    01:4c:df:e8:08:73:b3:24:a2:e8:1d:a8:74:06:5e:
                    1b:bc:68:af:f2:d3:57:37:44:bb:12:d6:18:2e:38:
                    b2:a2:85:05:80:db:d0:a6:df:a0:52:38:c7:9f:02:
                    4e:0e:1b:c3:60:6d:59:11:98:9c:b3:39:b6:73:2b:
                    5f:c1:a7:d6:65:ff:60:d6:42:be:21:23:1c:e6:75:
                    65:b5
                Exponent: 65537 (0x10001)
        X509v3 extensions:
            X509v3 Key Usage: critical
                Digital Signature, Key Encipherment
            X509v3 Basic Constraints: 
                CA:FALSE
            X509v3 Extended Key Usage: 
                TLS Web Server Authentication, TLS Web Client Authentication
            X509v3 Subject Key Identifier: 
                0D:82:AF:E6:40:DE:52:C7:7F:85:AF:45:89:1B:B3:58:D3:25:4C:08
            X509v3 Authority Key Identifier: 
                keyid:D7:18:44:A7:6F:FA:9F:AF:1C:04:98:AC:CD:2B:AA:19:7B:09:C8:7C

            X509v3 Subject Alternative Name: 
                DNS:kxuan.tech
    Signature Algorithm: sha1WithRSAEncryption
         80:18:4d:58:4b:f6:ea:e7:23:6f:0e:f2:31:b2:09:2a:ad:70:
         8a:cd:2c:d9:34:41:80:d9:9a:df:e5:f8:c1:91:02:e3:d6:af:
         54:d8:59:c1:45:b1:36:7b:8e:2c:78:19:37:2d:de:3f:de:5b:
         53:40:02:73:f1:27:34:6b:0c:ef:2c:fe:ba:3f:15:e5:01:9e:
         6a:c2:06:03:59:d1:7e:94:18:bc:b6:1f:fa:60:3d:ef:b5:a8:
         3a:9d:c0:7c:61:15:fb:70:63:78:79:31:1c:e8:6d:72:2b:2d:
         01:00:43:1a:43:ff:50:e2:b0:cb:8c:c8:ed:93:51:e2:3b:11:
         4c:8b:c7:2c:1c:93:06:17:6b:08:fb:d6:24:9a:1b:d0:b8:7f:
         10:7f:d7:4b:81:e1:88:70:87:98:b2:61:39:f1:de:61:b3:ec:
         8d:50:ac:6a:d2:c6:ff:a7:ec:13:1b:10:fd:db:66:26:8a:ef:
         60:1e:5f:e9:36:74:f5:2d:7a:d7:3b:a8:dd:1d:f0:79:18:2c:
         a5:ce:03:00:a0:1e:08:b0:9e:1c:5d:41:64:b3:9d:b5:ad:35:
         2d:e0:3e:1a:13:ce:aa:f2:88:69:89:8e:fd:a7:23:f2:c6:d1:
         9e:96:19:e7:f0:b2:57:f6:1f:0f:c0:ad:96:dd:fc:fc:79:06:
         15:05:65:f7
-----BEGIN CERTIFICATE-----
MIIDuDCCAqCgAwIBAgIBAjANBgkqhkiG9w0BAQUFADBzMRQwEgYKCZImiZPyLGQB
GRYEdGVjaDEVMBMGCgmSJomT8ixkARkWBWt4dWFuMQ4wDAYDVQQKDAVrWHVhbjEZ
MBcGA1UECwwQa1h1YW4gU2lnbmluZyBDQTEZMBcGA1UEAwwQa1h1YW4gU2lnbmlu
ZyBDQTAeFw0xNzA2MjMxMDI0NDVaFw0xOTA2MjMxMDI0NDVaMDUxDjAMBgNVBAoM
BWtYdWFuMQ4wDAYDVQQLDAVrWHVhbjETMBEGA1UEAwwKa3h1YW4udGVjaDCCASIw
DQYJKoZIhvcNAQEBBQADggEPADCCAQoCggEBALobTd2HZzw3fXJKblBfC0/VcNfh
tbIhUWmxL9ObBJfw7rSajgCxCS1IELzJKCPuerfisciB8MqQorurbUhTCS8WfiDl
HHvYfI4cZ2f0HkuOCdFD5vQE79CxH6BRIA16H+3ZKqeycocYqiTISfIEGlB8+X3Z
huQdzce4oXyXIcRQsSkWQgfM3/x9/3bYWSoTsMdeihFsEXGNDnRWoWLyzW70hgFZ
KGSaf89vEppbGLXvFdnEAUzf6AhzsySi6B2odAZeG7xor/LTVzdEuxLWGC44sqKF
BYDb0KbfoFI4x58CTg4bw2BtWRGYnLM5tnMrX8Gn1mX/YNZCviEjHOZ1ZbUCAwEA
AaOBlDCBkTAOBgNVHQ8BAf8EBAMCBaAwCQYDVR0TBAIwADAdBgNVHSUEFjAUBggr
BgEFBQcDAQYIKwYBBQUHAwIwHQYDVR0OBBYEFA2Cr+ZA3lLHf4WvRYkbs1jTJUwI
MB8GA1UdIwQYMBaAFNcYRKdv+p+vHASYrM0rqhl7Cch8MBUGA1UdEQQOMAyCCmt4
dWFuLnRlY2gwDQYJKoZIhvcNAQEFBQADggEBAIAYTVhL9urnI28O8jGyCSqtcIrN
LNk0QYDZmt/l+MGRAuPWr1TYWcFFsTZ7jix4GTct3j/eW1NAAnPxJzRrDO8s/ro/
FeUBnmrCBgNZ0X6UGLy2H/pgPe+1qDqdwHxhFftwY3h5MRzobXIrLQEAQxpD/1Di
sMuMyO2TUeI7EUyLxywckwYXawj71iSaG9C4fxB/10uB4Yhwh5iyYTnx3mGz7I1Q
rGrSxv+n7BMbEP3bZiaK72AeX+k2dPUtetc7qN0d8HkYLKXOAwCgHgiwnhxdQWSz
nbWtNS3gPhoTzqryiGmJjv2nI/LG0Z6WGefwslf2Hw/ArZbd/Px5BhUFZfc=
-----END CERTIFICATE-----
