Certificate:
    Data:
        Version: 3 (0x2)
        Serial Number: 1 (0x1)
    Signature Algorithm: sha1WithRSAEncryption
        Issuer: DC=tech, DC=kxuan, O=kXuan, OU=kXuan Signing CA, CN=kXuan Signing CA
        Validity
            Not Before: Jun 23 09:19:40 2017 GMT
            Not After : Jun 23 09:19:40 2019 GMT
        Subject: DC=tech, DC=kxuan, DC=ca, O=kXuan CA, OU=kXuan CA Server, CN=ca.kxuan.tech
        Subject Public Key Info:
            Public Key Algorithm: rsaEncryption
                Public-Key: (2048 bit)
                Modulus:
                    00:d0:ec:65:ae:3d:ac:fe:a6:17:22:4b:a1:49:1b:
                    ac:d9:7e:d2:f4:38:1e:0b:9d:32:4c:d6:1d:12:21:
                    87:8d:cf:5c:7b:52:14:57:f8:d3:27:7b:2c:4d:b9:
                    14:ec:b9:fb:dc:a8:34:8e:e5:f9:7b:ce:c2:3f:4e:
                    82:64:df:a7:6e:f7:c6:6b:96:68:48:18:a0:2a:59:
                    67:d3:c0:15:59:4a:99:70:2f:ab:cf:cd:bd:81:ed:
                    41:8d:b7:34:d5:2b:32:5b:fa:1a:79:00:68:78:36:
                    f4:42:50:f2:ff:36:e2:3c:b9:24:12:ca:49:2a:db:
                    d1:a2:2a:a3:45:97:ae:96:e8:b3:22:f9:b9:29:c8:
                    fc:37:24:94:f2:bd:e6:b6:5c:5d:69:37:ee:2f:ea:
                    78:82:3d:0f:44:88:ce:f7:6f:81:c9:2a:b3:73:d1:
                    e5:bb:68:7b:73:d7:98:ed:e3:6b:63:c6:51:ef:b5:
                    68:5e:74:9c:a7:3a:c8:7d:75:78:c4:e0:13:35:a3:
                    84:a4:b1:fc:bb:71:73:6b:81:63:a9:ef:f4:a7:62:
                    fe:37:41:36:a0:21:24:97:b5:34:97:01:c9:8f:40:
                    a0:56:5d:75:ec:00:7b:19:79:4c:d8:cc:2d:1b:74:
                    50:e5:3c:1b:2a:e5:bb:e1:4d:12:1d:36:bb:e1:9b:
                    1b:53
                Exponent: 65537 (0x10001)
        X509v3 extensions:
            X509v3 Key Usage: critical
                Digital Signature, Key Encipherment
            X509v3 Basic Constraints: 
                CA:FALSE
            X509v3 Extended Key Usage: 
                TLS Web Server Authentication, TLS Web Client Authentication
            X509v3 Subject Key Identifier: 
                77:F8:90:07:BF:91:93:89:0D:B3:BA:46:DA:5E:32:FF:E3:03:6D:BF
            X509v3 Authority Key Identifier: 
                keyid:D7:18:44:A7:6F:FA:9F:AF:1C:04:98:AC:CD:2B:AA:19:7B:09:C8:7C

            X509v3 Subject Alternative Name: 
                DNS:ca.kxuan.tech
    Signature Algorithm: sha1WithRSAEncryption
         05:5d:9e:91:95:33:50:d4:cb:74:c6:b5:0a:2a:13:57:13:8c:
         c6:75:0e:02:ef:2d:5e:5e:bd:b8:1f:09:5c:d3:c5:66:ce:7a:
         6f:7b:05:d3:46:52:33:1b:8f:10:f4:66:a0:b3:f0:11:1c:09:
         40:0c:e4:4e:8f:5e:07:5a:d9:b7:a6:c6:a7:5c:c2:42:f2:24:
         51:94:20:49:a2:05:5c:82:74:b4:e7:0b:0a:48:53:79:ce:78:
         48:6d:2f:7a:9f:b2:10:4d:68:b7:e9:cc:38:b8:99:4c:03:2c:
         e2:65:e2:61:ac:63:94:f9:8b:26:77:16:c5:12:38:b7:90:a9:
         8c:f0:9f:1f:14:91:96:70:1e:97:68:ce:cb:68:cb:90:1c:4c:
         65:cd:68:60:43:cf:9f:e3:4d:07:4e:69:f7:24:cd:3a:d0:c5:
         f7:6c:b8:ba:27:c3:9f:8f:c5:34:91:e8:69:56:1b:b2:fc:47:
         70:45:04:ab:22:0d:39:7e:fd:3c:0e:a3:bd:20:ce:a8:58:78:
         21:26:94:e2:6f:6c:03:cb:17:f1:84:b9:67:f9:fe:8c:e7:19:
         e6:ea:0b:8c:c2:3f:e1:8b:57:49:7d:84:cd:2e:0b:24:e2:fc:
         61:51:af:fe:d5:9a:5a:d0:96:55:cd:ff:7c:6d:b9:08:50:df:
         3b:24:ef:82
-----BEGIN CERTIFICATE-----
MIIEDTCCAvWgAwIBAgIBATANBgkqhkiG9w0BAQUFADBzMRQwEgYKCZImiZPyLGQB
GRYEdGVjaDEVMBMGCgmSJomT8ixkARkWBWt4dWFuMQ4wDAYDVQQKDAVrWHVhbjEZ
MBcGA1UECwwQa1h1YW4gU2lnbmluZyBDQTEZMBcGA1UEAwwQa1h1YW4gU2lnbmlu
ZyBDQTAeFw0xNzA2MjMwOTE5NDBaFw0xOTA2MjMwOTE5NDBaMIGGMRQwEgYKCZIm
iZPyLGQBGRYEdGVjaDEVMBMGCgmSJomT8ixkARkWBWt4dWFuMRIwEAYKCZImiZPy
LGQBGRYCY2ExETAPBgNVBAoMCGtYdWFuIENBMRgwFgYDVQQLDA9rWHVhbiBDQSBT
ZXJ2ZXIxFjAUBgNVBAMMDWNhLmt4dWFuLnRlY2gwggEiMA0GCSqGSIb3DQEBAQUA
A4IBDwAwggEKAoIBAQDQ7GWuPaz+phciS6FJG6zZftL0OB4LnTJM1h0SIYeNz1x7
UhRX+NMneyxNuRTsufvcqDSO5fl7zsI/ToJk36du98ZrlmhIGKAqWWfTwBVZSplw
L6vPzb2B7UGNtzTVKzJb+hp5AGh4NvRCUPL/NuI8uSQSykkq29GiKqNFl66W6LMi
+bkpyPw3JJTyvea2XF1pN+4v6niCPQ9EiM73b4HJKrNz0eW7aHtz15jt42tjxlHv
tWhedJynOsh9dXjE4BM1o4Sksfy7cXNrgWOp7/SnYv43QTagISSXtTSXAcmPQKBW
XXXsAHsZeUzYzC0bdFDlPBsq5bvhTRIdNrvhmxtTAgMBAAGjgZcwgZQwDgYDVR0P
AQH/BAQDAgWgMAkGA1UdEwQCMAAwHQYDVR0lBBYwFAYIKwYBBQUHAwEGCCsGAQUF
BwMCMB0GA1UdDgQWBBR3+JAHv5GTiQ2zukbaXjL/4wNtvzAfBgNVHSMEGDAWgBTX
GESnb/qfrxwEmKzNK6oZewnIfDAYBgNVHREEETAPgg1jYS5reHVhbi50ZWNoMA0G
CSqGSIb3DQEBBQUAA4IBAQAFXZ6RlTNQ1Mt0xrUKKhNXE4zGdQ4C7y1eXr24Hwlc
08VmznpvewXTRlIzG48Q9Gags/ARHAlADOROj14HWtm3psanXMJC8iRRlCBJogVc
gnS05wsKSFN5znhIbS96n7IQTWi36cw4uJlMAyziZeJhrGOU+YsmdxbFEji3kKmM
8J8fFJGWcB6XaM7LaMuQHExlzWhgQ8+f400HTmn3JM060MX3bLi6J8Ofj8U0kehp
Vhuy/EdwRQSrIg05fv08DqO9IM6oWHghJpTib2wDyxfxhLln+f6M5xnm6guMwj/h
i1dJfYTNLgsk4vxhUa/+1Zpa0JZVzf98bbkIUN87JO+C
-----END CERTIFICATE-----
