Certificate:
    Data:
        Version: 3 (0x2)
        Serial Number: 3 (0x3)
    Signature Algorithm: sha1WithRSAEncryption
        Issuer: DC=tech, DC=kxuan, O=kXuan, OU=kXuan Signing CA, CN=kXuan Signing CA
        Validity
            Not Before: Jun 23 10:46:32 2017 GMT
            Not After : Jun 23 10:46:32 2019 GMT
        Subject: O=kXuan, OU=kXuan, CN=vps.kxuan.tech
        Subject Public Key Info:
            Public Key Algorithm: rsaEncryption
                Public-Key: (2048 bit)
                Modulus:
                    00:e6:16:2d:00:8e:86:db:2b:bb:aa:5a:6a:82:f7:
                    71:51:5e:92:66:11:e4:26:d8:73:15:c9:e0:99:58:
                    06:58:1e:bf:67:f9:a3:e1:2b:1c:a2:87:8d:1d:dd:
                    5b:74:53:69:c9:9f:a9:fc:c6:94:d9:c3:6f:52:7d:
                    11:5d:e2:5c:d2:68:ae:e8:20:0e:b1:0e:0b:df:18:
                    9e:d0:3d:e3:bc:28:a9:2a:73:4a:48:a2:24:61:15:
                    c7:b0:4c:fa:20:56:c0:9f:8e:65:1c:d6:04:10:1a:
                    21:c3:9c:8d:a5:58:48:8e:1f:f6:db:8f:53:c9:0c:
                    55:ea:af:a1:ff:c3:a2:e4:76:d6:e9:b6:0f:4e:04:
                    ba:37:d8:29:4d:aa:85:19:b4:5e:0e:23:84:59:a8:
                    a0:dd:00:4a:d0:9e:25:96:13:7a:d5:d6:eb:11:64:
                    fc:e0:5e:48:f9:61:02:4e:d1:61:ec:11:92:4e:1e:
                    30:02:19:47:ea:c4:a4:09:52:41:48:4e:57:2f:06:
                    20:92:f3:1b:33:d6:b2:2c:59:72:7c:b5:09:b1:d5:
                    19:f3:9a:74:1a:e3:ac:4c:b9:a8:82:44:8e:c6:c3:
                    7f:67:d3:6b:9e:6c:4a:40:8f:9a:97:f5:75:70:47:
                    1f:58:f2:86:31:27:c9:a8:3a:65:1a:97:7a:70:69:
                    c7:55
                Exponent: 65537 (0x10001)
        X509v3 extensions:
            X509v3 Key Usage: critical
                Digital Signature, Key Encipherment
            X509v3 Basic Constraints: 
                CA:FALSE
            X509v3 Extended Key Usage: 
                TLS Web Server Authentication, TLS Web Client Authentication
            X509v3 Subject Key Identifier: 
                2D:A0:15:7D:B9:FA:A1:56:F4:4B:5B:0A:1F:93:E8:B7:DF:9B:70:77
            X509v3 Authority Key Identifier: 
                keyid:D7:18:44:A7:6F:FA:9F:AF:1C:04:98:AC:CD:2B:AA:19:7B:09:C8:7C

            X509v3 Subject Alternative Name: 
                DNS:vps.kxuan.tech
    Signature Algorithm: sha1WithRSAEncryption
         06:2d:4f:c7:0f:90:15:44:7a:5d:95:2b:e2:46:54:90:20:00:
         8d:fa:c8:52:af:a2:31:24:06:d0:d7:48:5f:c7:f8:ba:be:48:
         1f:35:47:da:ce:19:5f:d4:35:d8:69:65:f6:bf:8f:60:76:b5:
         8c:2e:dd:ec:89:89:4e:1b:9a:1e:61:b5:8b:5b:f0:67:c1:02:
         92:be:ec:8f:e3:ee:99:dc:9f:0c:90:35:e1:15:41:7b:5c:5d:
         6f:7f:b5:87:9d:41:17:ff:be:ef:73:b0:01:b0:2b:27:cb:3a:
         2e:a6:9e:24:fa:7a:4c:7e:27:f6:d7:e8:db:ec:7a:87:c2:fa:
         d0:0c:01:34:28:2f:fd:3a:db:55:08:a6:96:00:35:ce:58:5f:
         6b:26:25:6b:bf:1e:e3:f2:16:30:83:da:3d:6f:f4:65:c1:67:
         de:36:5f:15:b4:13:18:d3:a7:43:5a:8d:cc:d8:40:0d:89:9e:
         ba:12:17:b8:23:2c:4d:0e:d6:d3:d0:45:81:74:5e:99:e0:ff:
         b8:f9:50:87:a7:f4:9b:81:ff:af:e8:a7:ab:28:1e:45:09:a5:
         af:a1:33:c8:b1:1a:2e:4d:2b:2a:cf:bc:f2:52:f3:9d:e2:4e:
         b7:7c:b6:b8:48:1a:d3:7d:8d:b6:28:f2:1b:44:4a:5b:29:66:
         c6:c0:d5:25
-----BEGIN CERTIFICATE-----
MIIDwDCCAqigAwIBAgIBAzANBgkqhkiG9w0BAQUFADBzMRQwEgYKCZImiZPyLGQB
GRYEdGVjaDEVMBMGCgmSJomT8ixkARkWBWt4dWFuMQ4wDAYDVQQKDAVrWHVhbjEZ
MBcGA1UECwwQa1h1YW4gU2lnbmluZyBDQTEZMBcGA1UEAwwQa1h1YW4gU2lnbmlu
ZyBDQTAeFw0xNzA2MjMxMDQ2MzJaFw0xOTA2MjMxMDQ2MzJaMDkxDjAMBgNVBAoM
BWtYdWFuMQ4wDAYDVQQLDAVrWHVhbjEXMBUGA1UEAwwOdnBzLmt4dWFuLnRlY2gw
ggEiMA0GCSqGSIb3DQEBAQUAA4IBDwAwggEKAoIBAQDmFi0AjobbK7uqWmqC93FR
XpJmEeQm2HMVyeCZWAZYHr9n+aPhKxyih40d3Vt0U2nJn6n8xpTZw29SfRFd4lzS
aK7oIA6xDgvfGJ7QPeO8KKkqc0pIoiRhFcewTPogVsCfjmUc1gQQGiHDnI2lWEiO
H/bbj1PJDFXqr6H/w6Lkdtbptg9OBLo32ClNqoUZtF4OI4RZqKDdAErQniWWE3rV
1usRZPzgXkj5YQJO0WHsEZJOHjACGUfqxKQJUkFITlcvBiCS8xsz1rIsWXJ8tQmx
1RnzmnQa46xMuaiCRI7Gw39n02uebEpAj5qX9XVwRx9Y8oYxJ8moOmUal3pwacdV
AgMBAAGjgZgwgZUwDgYDVR0PAQH/BAQDAgWgMAkGA1UdEwQCMAAwHQYDVR0lBBYw
FAYIKwYBBQUHAwEGCCsGAQUFBwMCMB0GA1UdDgQWBBQtoBV9ufqhVvRLWwofk+i3
35twdzAfBgNVHSMEGDAWgBTXGESnb/qfrxwEmKzNK6oZewnIfDAZBgNVHREEEjAQ
gg52cHMua3h1YW4udGVjaDANBgkqhkiG9w0BAQUFAAOCAQEABi1Pxw+QFUR6XZUr
4kZUkCAAjfrIUq+iMSQG0NdIX8f4ur5IHzVH2s4ZX9Q12Gll9r+PYHa1jC7d7ImJ
ThuaHmG1i1vwZ8ECkr7sj+PumdyfDJA14RVBe1xdb3+1h51BF/++73OwAbArJ8s6
LqaeJPp6TH4n9tfo2+x6h8L60AwBNCgv/TrbVQimlgA1zlhfayYla78e4/IWMIPa
PW/0ZcFn3jZfFbQTGNOnQ1qNzNhADYmeuhIXuCMsTQ7W09BFgXRemeD/uPlQh6f0
m4H/r+inqygeRQmlr6EzyLEaLk0rKs+88lLzneJOt3y2uEga032NtijyG0RKWylm
xsDVJQ==
-----END CERTIFICATE-----
