Certificate:
    Data:
        Version: 3 (0x2)
        Serial Number: 1 (0x1)
    Signature Algorithm: sha256WithRSAEncryption
        Issuer: DC=tech, DC=kxuan, O=kXuan, OU=kXuan Root CA, CN=kXuan Root CA
        Validity
            Not Before: Jun 23 09:12:24 2017 GMT
            Not After : Jun 23 09:12:24 2027 GMT
        Subject: DC=tech, DC=kxuan, O=kXuan, OU=kXuan Root CA, CN=kXuan Root CA
        Subject Public Key Info:
            Public Key Algorithm: rsaEncryption
                Public-Key: (2048 bit)
                Modulus:
                    00:d5:ce:62:fe:9a:8a:97:e8:98:b6:4a:bc:8b:70:
                    c5:d0:c0:10:95:13:f4:1b:2d:83:17:11:7c:37:6b:
                    8b:02:03:99:90:71:a1:60:8e:11:a8:19:46:24:e4:
                    87:aa:30:e5:fe:00:2e:f5:f4:61:6e:09:46:64:c4:
                    d8:a2:9b:2d:c5:82:35:6e:c5:15:ba:5a:95:05:9f:
                    22:92:17:2a:87:50:03:ee:ff:2a:b1:a2:eb:9a:81:
                    94:78:00:20:13:72:87:60:02:21:3f:bd:8a:94:61:
                    c4:6c:15:3c:1d:ea:34:cf:f8:93:d8:c7:90:85:dd:
                    3b:34:32:34:0a:80:cd:05:4f:af:42:9e:47:b3:9c:
                    2f:d7:f8:15:1b:3d:82:0c:5a:89:5a:d3:87:ad:88:
                    83:95:96:0f:14:79:8c:4d:e5:da:03:29:c4:ba:44:
                    24:43:68:ff:58:b5:4d:a9:74:a6:3c:7f:85:b9:d7:
                    ef:6a:c6:f0:c0:4d:bd:b3:41:47:43:7f:95:7b:29:
                    b3:dd:5d:a7:5a:57:70:d5:8d:e3:1c:2d:e0:b1:55:
                    da:5b:55:e6:e7:ed:c7:e7:1f:fe:d0:2b:47:52:f2:
                    bc:ba:cb:53:1d:18:86:98:2e:41:0a:32:ee:4b:c8:
                    bd:1f:fa:b1:c1:ac:46:c4:56:6d:cf:d8:b5:bd:de:
                    84:5b
                Exponent: 65537 (0x10001)
        X509v3 extensions:
            X509v3 Key Usage: critical
                Certificate Sign, CRL Sign
            X509v3 Basic Constraints: critical
                CA:TRUE
            X509v3 Subject Key Identifier: 
                C1:89:A8:F6:6D:80:CD:DF:D0:7C:A2:8A:56:B3:D8:C1:36:96:4B:AD
            X509v3 Authority Key Identifier: 
                keyid:C1:89:A8:F6:6D:80:CD:DF:D0:7C:A2:8A:56:B3:D8:C1:36:96:4B:AD

    Signature Algorithm: sha256WithRSAEncryption
         4f:5f:37:51:65:28:4f:e1:c7:8f:c0:07:36:7e:e2:c2:82:b7:
         ec:4e:05:8f:00:88:1c:43:3e:55:0e:dd:6b:15:79:10:b0:3b:
         56:57:05:01:27:7c:0e:16:ee:29:ea:f5:ca:48:c2:79:8e:ea:
         1e:20:4a:1c:48:60:3c:30:93:bc:7f:6c:8a:68:da:06:bb:00:
         fc:c3:c4:39:ef:71:fc:98:80:c2:57:3f:15:96:0f:29:09:03:
         62:0e:95:0d:bd:89:59:14:14:63:6e:4f:07:fc:fd:2f:a4:90:
         8d:64:b1:66:d7:ff:f7:14:27:8c:d3:d4:92:2f:4e:62:57:b9:
         17:ac:47:c3:58:39:69:20:0d:64:8c:3e:94:87:e0:bb:3d:59:
         c0:3b:50:b0:9b:66:7f:94:8a:87:c6:df:9a:5e:af:ea:81:82:
         8c:b9:f0:ec:43:a7:81:9e:c3:a0:dc:cc:49:da:22:fa:e6:89:
         06:1a:e0:00:27:90:6b:55:49:49:52:84:6e:29:66:16:54:91:
         be:7f:aa:86:f2:96:6a:07:0a:11:4d:3d:78:e6:65:a4:19:62:
         ee:d7:1b:ad:3f:fd:c8:57:4d:dd:f0:a1:c4:b4:0c:93:06:1d:
         b5:42:a3:e0:ab:0c:c5:a3:ab:06:8a:ce:a4:4d:d8:9f:5f:0b:
         4e:53:20:2c
-----BEGIN CERTIFICATE-----
MIIDuDCCAqCgAwIBAgIBATANBgkqhkiG9w0BAQsFADBtMRQwEgYKCZImiZPyLGQB
GRYEdGVjaDEVMBMGCgmSJomT8ixkARkWBWt4dWFuMQ4wDAYDVQQKDAVrWHVhbjEW
MBQGA1UECwwNa1h1YW4gUm9vdCBDQTEWMBQGA1UEAwwNa1h1YW4gUm9vdCBDQTAe
Fw0xNzA2MjMwOTEyMjRaFw0yNzA2MjMwOTEyMjRaMG0xFDASBgoJkiaJk/IsZAEZ
FgR0ZWNoMRUwEwYKCZImiZPyLGQBGRYFa3h1YW4xDjAMBgNVBAoMBWtYdWFuMRYw
FAYDVQQLDA1rWHVhbiBSb290IENBMRYwFAYDVQQDDA1rWHVhbiBSb290IENBMIIB
IjANBgkqhkiG9w0BAQEFAAOCAQ8AMIIBCgKCAQEA1c5i/pqKl+iYtkq8i3DF0MAQ
lRP0Gy2DFxF8N2uLAgOZkHGhYI4RqBlGJOSHqjDl/gAu9fRhbglGZMTYopstxYI1
bsUVulqVBZ8ikhcqh1AD7v8qsaLrmoGUeAAgE3KHYAIhP72KlGHEbBU8Heo0z/iT
2MeQhd07NDI0CoDNBU+vQp5Hs5wv1/gVGz2CDFqJWtOHrYiDlZYPFHmMTeXaAynE
ukQkQ2j/WLVNqXSmPH+FudfvasbwwE29s0FHQ3+Veymz3V2nWldw1Y3jHC3gsVXa
W1Xm5+3H5x/+0CtHUvK8ustTHRiGmC5BCjLuS8i9H/qxwaxGxFZtz9i1vd6EWwID
AQABo2MwYTAOBgNVHQ8BAf8EBAMCAQYwDwYDVR0TAQH/BAUwAwEB/zAdBgNVHQ4E
FgQUwYmo9m2Azd/QfKKKVrPYwTaWS60wHwYDVR0jBBgwFoAUwYmo9m2Azd/QfKKK
VrPYwTaWS60wDQYJKoZIhvcNAQELBQADggEBAE9fN1FlKE/hx4/ABzZ+4sKCt+xO
BY8AiBxDPlUO3WsVeRCwO1ZXBQEnfA4W7inq9cpIwnmO6h4gShxIYDwwk7x/bIpo
2ga7APzDxDnvcfyYgMJXPxWWDykJA2IOlQ29iVkUFGNuTwf8/S+kkI1ksWbX//cU
J4zT1JIvTmJXuResR8NYOWkgDWSMPpSH4Ls9WcA7ULCbZn+UiofG35per+qBgoy5
8OxDp4Gew6DczEnaIvrmiQYa4AAnkGtVSUlShG4pZhZUkb5/qobylmoHChFNPXjm
ZaQZYu7XG60//chXTd3wocS0DJMGHbVCo+CrDMWjqwaKzqRN2J9fC05TICw=
-----END CERTIFICATE-----
