Certificate:
    Data:
        Version: 3 (0x2)
        Serial Number: 2 (0x2)
    Signature Algorithm: sha256WithRSAEncryption
        Issuer: DC=tech, DC=kxuan, O=kXuan, OU=kXuan Root CA, CN=kXuan Root CA
        Validity
            Not Before: Jun 23 09:15:14 2017 GMT
            Not After : Jun 23 09:15:14 2027 GMT
        Subject: DC=tech, DC=kxuan, O=kXuan, OU=kXuan Signing CA, CN=kXuan Signing CA
        Subject Public Key Info:
            Public Key Algorithm: rsaEncryption
                Public-Key: (2048 bit)
                Modulus:
                    00:9f:0b:d6:a5:fc:b0:bb:69:de:65:87:38:65:12:
                    4c:ee:e6:e1:8d:7b:2b:93:43:68:b2:b0:3d:ce:68:
                    c0:f6:1c:f5:05:68:bb:9f:9a:d8:a3:7b:ca:8b:b9:
                    0a:80:be:de:7f:ea:4d:a9:f5:30:de:f7:55:ad:18:
                    d1:f7:2b:84:27:f0:ae:7d:1c:d1:82:40:40:53:54:
                    a7:6e:cc:70:dd:94:6b:b7:eb:67:1b:2b:f8:d1:3d:
                    c2:8f:b4:d3:35:e7:a1:ca:d0:ff:d8:28:08:ee:c1:
                    2c:6d:69:da:12:1a:d1:d4:f7:66:09:34:67:f2:15:
                    34:5c:81:b7:6a:c1:6d:c9:42:ab:74:f0:0e:e3:ab:
                    1a:fd:9b:91:04:40:53:dc:5b:7c:50:91:29:fd:6d:
                    1d:11:f6:20:52:ba:6f:f6:87:e5:4e:5a:70:66:f6:
                    0a:05:20:22:39:3a:9b:cf:4b:5b:34:e7:3e:5a:f9:
                    4c:67:ed:17:2b:fa:64:17:01:fb:c4:e1:d2:10:35:
                    7b:a3:63:22:56:fd:69:f1:c4:06:42:1a:c4:e5:07:
                    b4:cf:e7:9d:ba:47:0a:c4:71:9b:92:04:a5:4d:a5:
                    3c:35:98:06:69:4f:82:9c:66:3f:7f:9b:d6:0a:43:
                    af:51:14:ec:ea:cd:6a:84:09:1d:88:af:a7:76:54:
                    67:97
                Exponent: 65537 (0x10001)
        X509v3 extensions:
            X509v3 Key Usage: critical
                Certificate Sign, CRL Sign
            X509v3 Basic Constraints: critical
                CA:TRUE, pathlen:0
            X509v3 Subject Key Identifier: 
                D7:18:44:A7:6F:FA:9F:AF:1C:04:98:AC:CD:2B:AA:19:7B:09:C8:7C
            X509v3 Authority Key Identifier: 
                keyid:C1:89:A8:F6:6D:80:CD:DF:D0:7C:A2:8A:56:B3:D8:C1:36:96:4B:AD

    Signature Algorithm: sha256WithRSAEncryption
         7c:3e:c3:62:8e:a1:5c:dc:9a:35:db:23:18:70:c2:23:26:2f:
         69:0f:d1:e1:60:8f:41:6b:b3:d8:55:cd:c4:24:84:0c:0c:e4:
         60:16:1f:83:e8:42:b2:01:bc:2b:36:0a:21:8b:e1:d8:ee:e4:
         f2:28:88:f1:48:0e:16:9d:be:bd:26:76:87:98:e0:a2:49:cd:
         17:3c:72:76:88:9e:85:8c:69:6f:17:c3:ff:03:7e:2f:b7:47:
         b6:09:41:9b:a8:8d:88:2e:58:4f:41:97:c6:f1:42:bb:3a:86:
         9f:d9:23:2d:80:3e:fe:5f:31:34:ae:c3:ac:9e:3b:ce:eb:eb:
         a6:cc:22:ff:75:73:8c:52:48:aa:37:cf:0a:44:26:b4:00:51:
         af:87:1f:9f:8b:55:e9:ea:9f:22:b9:1b:68:47:54:7a:4a:51:
         2f:f7:5a:6d:02:ae:31:bd:88:00:49:e2:10:fd:3f:3f:7d:e4:
         ab:ea:d9:42:93:56:2a:67:42:26:d8:fa:9f:1b:28:a3:f1:3e:
         94:92:8e:3e:72:21:ce:d7:fa:c8:4f:df:6c:cd:ef:96:45:17:
         59:e6:05:59:87:ee:81:38:26:2d:ae:63:87:f2:0d:6a:6d:24:
         e5:14:9e:c2:e9:dc:78:8c:fc:fd:7b:ab:bc:70:75:93:ba:44:
         6d:b3:81:50
-----BEGIN CERTIFICATE-----
MIIDwTCCAqmgAwIBAgIBAjANBgkqhkiG9w0BAQsFADBtMRQwEgYKCZImiZPyLGQB
GRYEdGVjaDEVMBMGCgmSJomT8ixkARkWBWt4dWFuMQ4wDAYDVQQKDAVrWHVhbjEW
MBQGA1UECwwNa1h1YW4gUm9vdCBDQTEWMBQGA1UEAwwNa1h1YW4gUm9vdCBDQTAe
Fw0xNzA2MjMwOTE1MTRaFw0yNzA2MjMwOTE1MTRaMHMxFDASBgoJkiaJk/IsZAEZ
FgR0ZWNoMRUwEwYKCZImiZPyLGQBGRYFa3h1YW4xDjAMBgNVBAoMBWtYdWFuMRkw
FwYDVQQLDBBrWHVhbiBTaWduaW5nIENBMRkwFwYDVQQDDBBrWHVhbiBTaWduaW5n
IENBMIIBIjANBgkqhkiG9w0BAQEFAAOCAQ8AMIIBCgKCAQEAnwvWpfywu2neZYc4
ZRJM7ubhjXsrk0NosrA9zmjA9hz1BWi7n5rYo3vKi7kKgL7ef+pNqfUw3vdVrRjR
9yuEJ/CufRzRgkBAU1Snbsxw3ZRrt+tnGyv40T3Cj7TTNeehytD/2CgI7sEsbWna
EhrR1PdmCTRn8hU0XIG3asFtyUKrdPAO46sa/ZuRBEBT3Ft8UJEp/W0dEfYgUrpv
9oflTlpwZvYKBSAiOTqbz0tbNOc+WvlMZ+0XK/pkFwH7xOHSEDV7o2MiVv1p8cQG
QhrE5Qe0z+edukcKxHGbkgSlTaU8NZgGaU+CnGY/f5vWCkOvURTs6s1qhAkdiK+n
dlRnlwIDAQABo2YwZDAOBgNVHQ8BAf8EBAMCAQYwEgYDVR0TAQH/BAgwBgEB/wIB
ADAdBgNVHQ4EFgQU1xhEp2/6n68cBJiszSuqGXsJyHwwHwYDVR0jBBgwFoAUwYmo
9m2Azd/QfKKKVrPYwTaWS60wDQYJKoZIhvcNAQELBQADggEBAHw+w2KOoVzcmjXb
IxhwwiMmL2kP0eFgj0Frs9hVzcQkhAwM5GAWH4PoQrIBvCs2CiGL4dju5PIoiPFI
Dhadvr0mdoeY4KJJzRc8cnaInoWMaW8Xw/8Dfi+3R7YJQZuojYguWE9Bl8bxQrs6
hp/ZIy2APv5fMTSuw6yeO87r66bMIv91c4xSSKo3zwpEJrQAUa+HH5+LVenqnyK5
G2hHVHpKUS/3Wm0CrjG9iABJ4hD9Pz995Kvq2UKTVipnQibY+p8bKKPxPpSSjj5y
Ic7X+shP32zN75ZFF1nmBVmH7oE4Ji2uY4fyDWptJOUUnsLp3HiM/P17q7xwdZO6
RG2zgVA=
-----END CERTIFICATE-----
